target datalayout = "e-m:e-p270:32:32-p271:32:32-p272:64:64-i64:64-i128:128-f80:128-n8:16:32:64-S128"
target triple = "x86_64-pc-linux-gnu"

%"class.std::unique_ptr" = type { %"struct.std::__uniq_ptr_data" }
%"struct.std::__uniq_ptr_data" = type { %"class.std::__uniq_ptr_impl" }
%"class.std::__uniq_ptr_impl" = type { %"class.std::tuple" }
%"class.std::tuple" = type { %"struct.std::_Tuple_impl" }
%"struct.std::_Tuple_impl" = type { %"struct.std::_Head_base.1" }
%"struct.std::_Head_base.1" = type { ptr }
%"class.clang::SourceLocation" = type { i32 }
%"class.llvm::SmallVectorBase" = type { ptr, i32, i32 }
%"class.llvm::BumpPtrAllocatorImpl" = type { ptr, ptr, %"class.llvm::SmallVector", %"class.llvm::SmallVector.13", i64, i64 }
%"class.llvm::SmallVector" = type { %"class.llvm::SmallVectorImpl", %"struct.llvm::SmallVectorStorage" }
%"class.llvm::SmallVectorImpl" = type { %"class.llvm::SmallVectorTemplateBase" }
%"class.llvm::SmallVectorTemplateBase" = type { %"class.llvm::SmallVectorTemplateCommon" }
%"class.llvm::SmallVectorTemplateCommon" = type { %"class.llvm::SmallVectorBase" }
%"struct.llvm::SmallVectorStorage" = type { [32 x i8] }
%"class.llvm::SmallVector.13" = type { %"class.llvm::SmallVectorImpl.14" }
%"class.llvm::SmallVectorImpl.14" = type { %"class.llvm::SmallVectorTemplateBase.15" }
%"class.llvm::SmallVectorTemplateBase.15" = type { %"class.llvm::SmallVectorTemplateCommon.16" }
%"class.llvm::SmallVectorTemplateCommon.16" = type { %"class.llvm::SmallVectorBase" }
%"class.clang::FileID" = type { i32 }
%"class.clang::SourceManager" = type { %"class.llvm::RefCountedBase.109", ptr, ptr, %"class.llvm::BumpPtrAllocatorImpl", %"class.llvm::DenseMap.110", i8, i8, i8, %"class.std::unique_ptr.113", %"class.std::vector.121", %"class.llvm::SmallVector.126", %"class.llvm::PagedVector", %"class.llvm::SmallVector.136", i32, i32, %"class.llvm::BitVector", %"class.llvm::BitVector", ptr, %"class.clang::FileID", %"class.std::unique_ptr.146", %"class.clang::FileID", ptr, i32, i32, %"class.clang::FileID", %"class.clang::FileID", i32, i32, %"class.llvm::DenseMap.154", %"class.llvm::DenseMap.157", %"class.clang::InBeforeInTUCacheEntry", %"class.std::unique_ptr", %"class.std::unique_ptr.160", %"class.std::unique_ptr.168", %"class.llvm::DenseMap.176", %"class.llvm::SmallVector.179" }
%"class.llvm::RefCountedBase.109" = type { i32 }
%"class.llvm::DenseMap.110" = type <{ ptr, i32, i32, i32, [4 x i8] }>
%"class.std::unique_ptr.113" = type { %"struct.std::__uniq_ptr_data.114" }
%"struct.std::__uniq_ptr_data.114" = type { %"class.std::__uniq_ptr_impl.115" }
%"class.std::__uniq_ptr_impl.115" = type { %"class.std::tuple.116" }
%"class.std::tuple.116" = type { %"struct.std::_Tuple_impl.117" }
%"struct.std::_Tuple_impl.117" = type { %"struct.std::_Head_base.120" }
%"struct.std::_Head_base.120" = type { ptr }
%"class.std::vector.121" = type { %"struct.std::_Vector_base.122" }
%"struct.std::_Vector_base.122" = type { %"struct.std::_Vector_base<clang::SrcMgr::ContentCache *, std::allocator<clang::SrcMgr::ContentCache *>>::_Vector_impl" }
%"struct.std::_Vector_base<clang::SrcMgr::ContentCache *, std::allocator<clang::SrcMgr::ContentCache *>>::_Vector_impl" = type { %"struct.std::_Vector_base<clang::SrcMgr::ContentCache *, std::allocator<clang::SrcMgr::ContentCache *>>::_Vector_impl_data" }
%"struct.std::_Vector_base<clang::SrcMgr::ContentCache *, std::allocator<clang::SrcMgr::ContentCache *>>::_Vector_impl_data" = type { ptr, ptr, ptr }
%"class.llvm::SmallVector.126" = type { %"class.llvm::SmallVectorImpl.127" }
%"class.llvm::SmallVectorImpl.127" = type { %"class.llvm::SmallVectorTemplateBase.128" }
%"class.llvm::SmallVectorTemplateBase.128" = type { %"class.llvm::SmallVectorTemplateCommon.129" }
%"class.llvm::SmallVectorTemplateCommon.129" = type { %"class.llvm::SmallVectorBase" }
%"class.llvm::PagedVector" = type { i64, %"class.llvm::SmallVector.131", %"class.llvm::PointerIntPair" }
%"class.llvm::SmallVector.131" = type { %"class.llvm::SmallVectorImpl.132" }
%"class.llvm::SmallVectorImpl.132" = type { %"class.llvm::SmallVectorTemplateBase.133" }
%"class.llvm::SmallVectorTemplateBase.133" = type { %"class.llvm::SmallVectorTemplateCommon.134" }
%"class.llvm::SmallVectorTemplateCommon.134" = type { %"class.llvm::SmallVectorBase" }
%"class.llvm::PointerIntPair" = type { %"struct.llvm::detail::PunnedPointer" }
%"struct.llvm::detail::PunnedPointer" = type { [8 x i8] }
%"class.llvm::SmallVector.136" = type { %"class.llvm::SmallVectorImpl.137" }
%"class.llvm::SmallVectorImpl.137" = type { %"class.llvm::SmallVectorTemplateBase.138" }
%"class.llvm::SmallVectorTemplateBase.138" = type { %"class.llvm::SmallVectorTemplateCommon.139" }
%"class.llvm::SmallVectorTemplateCommon.139" = type { %"class.llvm::SmallVectorBase" }
%"class.llvm::BitVector" = type <{ %"class.llvm::SmallVector.141", i32, [4 x i8] }>
%"class.llvm::SmallVector.141" = type { %"class.llvm::SmallVectorImpl.142", %"struct.llvm::SmallVectorStorage.145" }
%"class.llvm::SmallVectorImpl.142" = type { %"class.llvm::SmallVectorTemplateBase.143" }
%"class.llvm::SmallVectorTemplateBase.143" = type { %"class.llvm::SmallVectorTemplateCommon.144" }
%"class.llvm::SmallVectorTemplateCommon.144" = type { %"class.llvm::SmallVectorBase" }
%"struct.llvm::SmallVectorStorage.145" = type { [48 x i8] }
%"class.std::unique_ptr.146" = type { %"struct.std::__uniq_ptr_data.147" }
%"struct.std::__uniq_ptr_data.147" = type { %"class.std::__uniq_ptr_impl.148" }
%"class.std::__uniq_ptr_impl.148" = type { %"class.std::tuple.149" }
%"class.std::tuple.149" = type { %"struct.std::_Tuple_impl.150" }
%"struct.std::_Tuple_impl.150" = type { %"struct.std::_Head_base.153" }
%"struct.std::_Head_base.153" = type { ptr }
%"class.llvm::DenseMap.154" = type <{ ptr, i32, i32, i32, [4 x i8] }>
%"class.llvm::DenseMap.157" = type <{ ptr, i32, i32, i32, [4 x i8] }>
%"class.clang::InBeforeInTUCacheEntry" = type { %"class.clang::FileID", %"class.clang::FileID", i8, %"class.clang::FileID", i32, i32 }
%"class.std::unique_ptr.160" = type { %"struct.std::__uniq_ptr_data.161" }
%"struct.std::__uniq_ptr_data.161" = type { %"class.std::__uniq_ptr_impl.162" }
%"class.std::__uniq_ptr_impl.162" = type { %"class.std::tuple.163" }
%"class.std::tuple.163" = type { %"struct.std::_Tuple_impl.164" }
%"struct.std::_Tuple_impl.164" = type { %"struct.std::_Head_base.167" }
%"struct.std::_Head_base.167" = type { ptr }
%"class.std::unique_ptr.168" = type { %"struct.std::__uniq_ptr_data.169" }
%"struct.std::__uniq_ptr_data.169" = type { %"class.std::__uniq_ptr_impl.170" }
%"class.std::__uniq_ptr_impl.170" = type { %"class.std::tuple.171" }
%"class.std::tuple.171" = type { %"struct.std::_Tuple_impl.172" }
%"struct.std::_Tuple_impl.172" = type { %"struct.std::_Head_base.175" }
%"struct.std::_Head_base.175" = type { ptr }
%"class.llvm::DenseMap.176" = type <{ ptr, i32, i32, i32, [4 x i8] }>
%"class.llvm::SmallVector.179" = type { %"class.llvm::SmallVectorImpl.180", %"struct.llvm::SmallVectorStorage.183" }
%"class.llvm::SmallVectorImpl.180" = type { %"class.llvm::SmallVectorTemplateBase.181" }
%"class.llvm::SmallVectorTemplateBase.181" = type { %"class.llvm::SmallVectorTemplateCommon.182" }
%"class.llvm::SmallVectorTemplateCommon.182" = type { %"class.llvm::SmallVectorBase" }
%"struct.llvm::SmallVectorStorage.183" = type { [96 x i8] }
%"class.clang::SrcMgr::SLocEntry" = type { i32, [4 x i8], %union.anon.186 }
%union.anon.186 = type { %"class.clang::SrcMgr::FileInfo" }
%"class.clang::SrcMgr::FileInfo" = type { %"class.clang::SourceLocation", i32, %"class.llvm::PointerIntPair.187" }
%"class.llvm::PointerIntPair.187" = type { %"struct.llvm::detail::PunnedPointer.188" }
%"struct.llvm::detail::PunnedPointer.188" = type { [8 x i8] }
%"class.clang::SrcMgr::ExpansionInfo" = type <{ %"class.clang::SourceLocation", %"class.clang::SourceLocation", %"class.clang::SourceLocation", i8, [3 x i8] }>
%"class.clang::CharSourceRange" = type <{ %"class.clang::SourceRange", i8, [3 x i8] }>
%"class.clang::SourceRange" = type { %"class.clang::SourceLocation", %"class.clang::SourceLocation" }

; Function Attrs: mustprogress nounwind uwtable
define linkonce_odr hidden noundef ptr @_ZN4llvm25SmallVectorTemplateCommonIN5clang6SrcMgr9SLocEntryEvE5beginEv(ptr noundef nonnull align 8 dereferenceable(16) %0) #1 comdat align 2 {
  %2 = alloca ptr, align 8
  store ptr %0, ptr %2, align 8
  %3 = load ptr, ptr %2, align 8
  %4 = getelementptr inbounds nuw %"class.llvm::SmallVectorBase", ptr %3, i32 0, i32 0
  %5 = load ptr, ptr %4, align 8
  ret ptr %5
}

; Function Attrs: mustprogress nounwind uwtable
define linkonce_odr hidden noundef zeroext i1 @_ZNK5clang14SourceLocation9isInvalidEv(ptr noundef nonnull align 4 dereferenceable(4) %0) #1 comdat align 2 {
  %2 = alloca ptr, align 8
  store ptr %0, ptr %2, align 8
  %3 = load ptr, ptr %2, align 8
  %4 = getelementptr inbounds nuw %"class.clang::SourceLocation", ptr %3, i32 0, i32 0
  %5 = load i32, ptr %4, align 4
  %6 = icmp eq i32 %5, 0
  ret i1 %6
}

; Function Attrs: mustprogress nounwind uwtable
define linkonce_odr hidden noundef nonnull align 8 dereferenceable(24) ptr @_ZN4llvm25SmallVectorTemplateCommonIN5clang6SrcMgr9SLocEntryEvEixEm(ptr noundef nonnull align 8 dereferenceable(16) %0, i64 noundef %1) #1 comdat align 2 {
  %3 = alloca ptr, align 8
  %4 = alloca i64, align 8
  store ptr %0, ptr %3, align 8
  store i64 %1, ptr %4, align 8
  %5 = load ptr, ptr %3, align 8
  %6 = call noundef ptr @_ZN4llvm25SmallVectorTemplateCommonIN5clang6SrcMgr9SLocEntryEvE5beginEv(ptr noundef nonnull align 8 dereferenceable(16) %5)
  %7 = load i64, ptr %4, align 8
  %8 = getelementptr inbounds %"class.clang::SrcMgr::SLocEntry", ptr %6, i64 %7
  ret ptr %8
}

; Function Attrs: mustprogress nounwind uwtable
define linkonce_odr hidden void @_ZN5clang15CharSourceRangeC2ENS_11SourceRangeEb(ptr noundef nonnull align 4 dereferenceable(9) %0, i64 %1, i1 noundef zeroext %2) unnamed_addr #1 comdat align 2 {
  %4 = alloca %"class.clang::SourceRange", align 4
  %5 = alloca ptr, align 8
  %6 = alloca i8, align 1
  store i64 %1, ptr %4, align 4
  store ptr %0, ptr %5, align 8
  %7 = zext i1 %2 to i8
  store i8 %7, ptr %6, align 1
  %8 = load ptr, ptr %5, align 8
  %9 = getelementptr inbounds nuw %"class.clang::CharSourceRange", ptr %8, i32 0, i32 0
  call void @llvm.memcpy.p0.p0.i64(ptr align 4 %9, ptr align 4 %4, i64 8, i1 false)
  %10 = getelementptr inbounds nuw %"class.clang::CharSourceRange", ptr %8, i32 0, i32 1
  %11 = load i8, ptr %6, align 1
  %12 = trunc i8 %11 to i1
  %13 = zext i1 %12 to i8
  store i8 %13, ptr %10, align 4
  ret void
}

; Function Attrs: mustprogress nounwind uwtable
define linkonce_odr hidden noundef zeroext i1 @_ZNK5clang6SrcMgr13ExpansionInfo21isExpansionTokenRangeEv(ptr noundef nonnull align 4 dereferenceable(13) %0) #1 comdat align 2 {
  %2 = alloca ptr, align 8
  store ptr %0, ptr %2, align 8
  %3 = load ptr, ptr %2, align 8
  %4 = getelementptr inbounds nuw %"class.clang::SrcMgr::ExpansionInfo", ptr %3, i32 0, i32 3
  %5 = load i8, ptr %4, align 4
  %6 = trunc i8 %5 to i1
  ret i1 %6
}

; Function Attrs: mustprogress nounwind uwtable
define linkonce_odr hidden void @_ZN5clang11SourceRangeC2ENS_14SourceLocationES1_(ptr noundef nonnull align 4 dereferenceable(8) %0, i32 %1, i32 %2) unnamed_addr #1 comdat align 2 {
  %4 = alloca %"class.clang::SourceLocation", align 4
  %5 = alloca %"class.clang::SourceLocation", align 4
  %6 = alloca ptr, align 8
  %7 = getelementptr inbounds nuw %"class.clang::SourceLocation", ptr %4, i32 0, i32 0
  store i32 %1, ptr %7, align 4
  %8 = getelementptr inbounds nuw %"class.clang::SourceLocation", ptr %5, i32 0, i32 0
  store i32 %2, ptr %8, align 4
  store ptr %0, ptr %6, align 8
  %9 = load ptr, ptr %6, align 8
  %10 = getelementptr inbounds nuw %"class.clang::SourceRange", ptr %9, i32 0, i32 0
  call void @llvm.memcpy.p0.p0.i64(ptr align 4 %10, ptr align 4 %4, i64 4, i1 false)
  %11 = getelementptr inbounds nuw %"class.clang::SourceRange", ptr %9, i32 0, i32 1
  call void @llvm.memcpy.p0.p0.i64(ptr align 4 %11, ptr align 4 %5, i64 4, i1 false)
  ret void
}

; Function Attrs: mustprogress nounwind uwtable
define linkonce_odr hidden i32 @_ZNK5clang6SrcMgr13ExpansionInfo18getExpansionLocEndEv(ptr noundef nonnull align 4 dereferenceable(13) %0) #1 comdat align 2 {
  %2 = alloca %"class.clang::SourceLocation", align 4
  %3 = alloca ptr, align 8
  store ptr %0, ptr %3, align 8
  %4 = load ptr, ptr %3, align 8
  %5 = getelementptr inbounds nuw %"class.clang::SrcMgr::ExpansionInfo", ptr %4, i32 0, i32 2
  %6 = call noundef zeroext i1 @_ZNK5clang14SourceLocation9isInvalidEv(ptr noundef nonnull align 4 dereferenceable(4) %5)
  br i1 %6, label %7, label %10

7:                                                ; preds = %1
  %8 = call i32 @_ZNK5clang6SrcMgr13ExpansionInfo20getExpansionLocStartEv(ptr noundef nonnull align 4 dereferenceable(13) %4)
  %9 = getelementptr inbounds nuw %"class.clang::SourceLocation", ptr %2, i32 0, i32 0
  store i32 %8, ptr %9, align 4
  br label %12

10:                                               ; preds = %1
  %11 = getelementptr inbounds nuw %"class.clang::SrcMgr::ExpansionInfo", ptr %4, i32 0, i32 2
  call void @llvm.memcpy.p0.p0.i64(ptr align 4 %2, ptr align 4 %11, i64 4, i1 false)
  br label %12

12:                                               ; preds = %10, %7
  %13 = getelementptr inbounds nuw %"class.clang::SourceLocation", ptr %2, i32 0, i32 0
  %14 = load i32, ptr %13, align 4
  ret i32 %14
}

; Function Attrs: mustprogress nounwind uwtable
define linkonce_odr hidden i32 @_ZNK5clang6SrcMgr13ExpansionInfo20getExpansionLocStartEv(ptr noundef nonnull align 4 dereferenceable(13) %0) #1 comdat align 2 {
  %2 = alloca %"class.clang::SourceLocation", align 4
  %3 = alloca ptr, align 8
  store ptr %0, ptr %3, align 8
  %4 = load ptr, ptr %3, align 8
  %5 = getelementptr inbounds nuw %"class.clang::SrcMgr::ExpansionInfo", ptr %4, i32 0, i32 1
  call void @llvm.memcpy.p0.p0.i64(ptr align 4 %2, ptr align 4 %5, i64 4, i1 false)
  %6 = getelementptr inbounds nuw %"class.clang::SourceLocation", ptr %2, i32 0, i32 0
  %7 = load i32, ptr %6, align 4
  ret i32 %7
}

; Function Attrs: mustprogress nounwind uwtable
define linkonce_odr hidden noundef nonnull align 8 dereferenceable(24) ptr @_ZN5clang13SourceManager12getSLocEntryENS_6FileIDEPb(ptr noundef nonnull align 8 dereferenceable(696) %0, i32 %1, ptr noundef %2) #1 comdat align 2 {
  %4 = alloca ptr, align 8
  %5 = alloca %"class.clang::FileID", align 4
  %6 = alloca ptr, align 8
  %7 = alloca ptr, align 8
  %8 = getelementptr inbounds nuw %"class.clang::FileID", ptr %5, i32 0, i32 0
  store i32 %1, ptr %8, align 4
  store ptr %0, ptr %6, align 8
  store ptr %2, ptr %7, align 8
  %9 = load ptr, ptr %6, align 8
  %10 = getelementptr inbounds nuw %"class.clang::FileID", ptr %5, i32 0, i32 0
  %11 = load i32, ptr %10, align 4
  %12 = icmp eq i32 %11, 0
  br i1 %12, label %17, label %13

13:                                               ; preds = %3
  %14 = getelementptr inbounds nuw %"class.clang::FileID", ptr %5, i32 0, i32 0
  %15 = load i32, ptr %14, align 4
  %16 = icmp eq i32 %15, -1
  br i1 %16, label %17, label %25

17:                                               ; preds = %13, %3
  %18 = load ptr, ptr %7, align 8
  %19 = icmp ne ptr %18, null
  br i1 %19, label %20, label %22

20:                                               ; preds = %17
  %21 = load ptr, ptr %7, align 8
  store i8 1, ptr %21, align 1
  br label %22

22:                                               ; preds = %20, %17
  %23 = getelementptr inbounds nuw %"class.clang::SourceManager", ptr %9, i32 0, i32 10
  %24 = call noundef nonnull align 8 dereferenceable(24) ptr @_ZN4llvm25SmallVectorTemplateCommonIN5clang6SrcMgr9SLocEntryEvEixEm(ptr noundef nonnull align 8 dereferenceable(16) %23, i64 noundef 0)
  store ptr %24, ptr %4, align 8
  br label %30

25:                                               ; preds = %13
  %26 = getelementptr inbounds nuw %"class.clang::FileID", ptr %5, i32 0, i32 0
  %27 = load i32, ptr %26, align 4
  %28 = load ptr, ptr %7, align 8
  %29 = call noundef nonnull align 8 dereferenceable(24) ptr @_ZN5clang13SourceManager16getSLocEntryByIDEiPb(ptr noundef nonnull align 8 dereferenceable(696) %9, i32 noundef %27, ptr noundef %28)
  store ptr %29, ptr %4, align 8
  br label %30

30:                                               ; preds = %25, %22
  %31 = load ptr, ptr %4, align 8
  ret ptr %31
}

; Function Attrs: mustprogress nounwind uwtable
define linkonce_odr hidden noundef i32 @_ZNK5clang14SourceLocation9getOffsetEv(ptr noundef nonnull align 4 dereferenceable(4) %0) #1 comdat align 2 {
  %2 = alloca ptr, align 8
  store ptr %0, ptr %2, align 8
  %3 = load ptr, ptr %2, align 8
  %4 = getelementptr inbounds nuw %"class.clang::SourceLocation", ptr %3, i32 0, i32 0
  %5 = load i32, ptr %4, align 4
  %6 = and i32 %5, 2147483647
  ret i32 %6
}

; Function Attrs: mustprogress nounwind uwtable
define linkonce_odr hidden { i64, i8 } @_ZNK5clang6SrcMgr13ExpansionInfo20getExpansionLocRangeEv(ptr noundef nonnull align 4 dereferenceable(13) %0) #1 comdat align 2 {
  %2 = alloca %"class.clang::CharSourceRange", align 4
  %3 = alloca ptr, align 8
  %4 = alloca %"class.clang::SourceRange", align 4
  %5 = alloca %"class.clang::SourceLocation", align 4
  %6 = alloca %"class.clang::SourceLocation", align 4
  %7 = alloca { i64, i8 }, align 8
  store ptr %0, ptr %3, align 8
  %8 = load ptr, ptr %3, align 8
  %9 = call i32 @_ZNK5clang6SrcMgr13ExpansionInfo20getExpansionLocStartEv(ptr noundef nonnull align 4 dereferenceable(13) %8)
  %10 = getelementptr inbounds nuw %"class.clang::SourceLocation", ptr %5, i32 0, i32 0
  store i32 %9, ptr %10, align 4
  %11 = call i32 @_ZNK5clang6SrcMgr13ExpansionInfo18getExpansionLocEndEv(ptr noundef nonnull align 4 dereferenceable(13) %8)
  %12 = getelementptr inbounds nuw %"class.clang::SourceLocation", ptr %6, i32 0, i32 0
  store i32 %11, ptr %12, align 4
  %13 = getelementptr inbounds nuw %"class.clang::SourceLocation", ptr %5, i32 0, i32 0
  %14 = load i32, ptr %13, align 4
  %15 = getelementptr inbounds nuw %"class.clang::SourceLocation", ptr %6, i32 0, i32 0
  %16 = load i32, ptr %15, align 4
  call void @_ZN5clang11SourceRangeC2ENS_14SourceLocationES1_(ptr noundef nonnull align 4 dereferenceable(8) %4, i32 %14, i32 %16)
  %17 = call noundef zeroext i1 @_ZNK5clang6SrcMgr13ExpansionInfo21isExpansionTokenRangeEv(ptr noundef nonnull align 4 dereferenceable(13) %8)
  %18 = load i64, ptr %4, align 4
  call void @_ZN5clang15CharSourceRangeC2ENS_11SourceRangeEb(ptr noundef nonnull align 4 dereferenceable(9) %2, i64 %18, i1 noundef zeroext %17)
  call void @llvm.memcpy.p0.p0.i64(ptr align 8 %7, ptr align 4 %2, i64 12, i1 false)
  %19 = load { i64, i8 }, ptr %7, align 8
  ret { i64, i8 } %19
}

; Function Attrs: mustprogress nounwind uwtable
define linkonce_odr hidden noundef nonnull align 4 dereferenceable(13) ptr @_ZNK5clang6SrcMgr9SLocEntry12getExpansionEv(ptr noundef nonnull align 8 dereferenceable(24) %0) #1 comdat align 2 {
  %2 = alloca ptr, align 8
  store ptr %0, ptr %2, align 8
  %3 = load ptr, ptr %2, align 8
  %4 = getelementptr inbounds nuw %"class.clang::SrcMgr::SLocEntry", ptr %3, i32 0, i32 2
  ret ptr %4
}

; Function Attrs: mustprogress nounwind uwtable
define linkonce_odr hidden noundef nonnull align 8 dereferenceable(24) ptr @_ZNK5clang13SourceManager12getSLocEntryENS_6FileIDEPb(ptr noundef nonnull align 8 dereferenceable(696) %0, i32 %1, ptr noundef %2) #1 comdat align 2 {
  %4 = alloca %"class.clang::FileID", align 4
  %5 = alloca ptr, align 8
  %6 = alloca ptr, align 8
  %7 = alloca %"class.clang::FileID", align 4
  %8 = getelementptr inbounds nuw %"class.clang::FileID", ptr %4, i32 0, i32 0
  store i32 %1, ptr %8, align 4
  store ptr %0, ptr %5, align 8
  store ptr %2, ptr %6, align 8
  %9 = load ptr, ptr %5, align 8
  call void @llvm.memcpy.p0.p0.i64(ptr align 4 %7, ptr align 4 %4, i64 4, i1 false)
  %10 = load ptr, ptr %6, align 8
  %11 = getelementptr inbounds nuw %"class.clang::FileID", ptr %7, i32 0, i32 0
  %12 = load i32, ptr %11, align 4
  %13 = call noundef nonnull align 8 dereferenceable(24) ptr @_ZN5clang13SourceManager12getSLocEntryENS_6FileIDEPb(ptr noundef nonnull align 8 dereferenceable(696) %9, i32 %12, ptr noundef %10)
  ret ptr %13
}

; Function Attrs: mustprogress nounwind uwtable
define linkonce_odr hidden i32 @_ZNK5clang13SourceManager9getFileIDENS_14SourceLocationE(ptr noundef nonnull align 8 dereferenceable(696) %0, i32 %1) #1 comdat align 2 {
  %3 = alloca %"class.clang::FileID", align 4
  %4 = alloca %"class.clang::SourceLocation", align 4
  %5 = alloca ptr, align 8
  %6 = getelementptr inbounds nuw %"class.clang::SourceLocation", ptr %4, i32 0, i32 0
  store i32 %1, ptr %6, align 4
  store ptr %0, ptr %5, align 8
  %7 = load ptr, ptr %5, align 8
  %8 = call noundef i32 @_ZNK5clang14SourceLocation9getOffsetEv(ptr noundef nonnull align 4 dereferenceable(4) %4)
  %9 = call i32 @_ZNK5clang13SourceManager9getFileIDEj(ptr noundef nonnull align 8 dereferenceable(696) %7, i32 noundef %8)
  %10 = getelementptr inbounds nuw %"class.clang::FileID", ptr %3, i32 0, i32 0
  store i32 %9, ptr %10, align 4
  %11 = getelementptr inbounds nuw %"class.clang::FileID", ptr %3, i32 0, i32 0
  %12 = load i32, ptr %11, align 4
  ret i32 %12
}

; Function Attrs: mustprogress nounwind uwtable
define dso_local { i64, i8 } @_ZNK5clang13SourceManager26getImmediateExpansionRangeENS_14SourceLocationE(ptr noundef nonnull align 8 dereferenceable(696) %0, i32 %1) #1 align 2 {
  %3 = alloca %"class.clang::CharSourceRange", align 4
  %4 = alloca %"class.clang::SourceLocation", align 4
  %5 = alloca ptr, align 8
  %6 = alloca ptr, align 8
  %7 = alloca %"class.clang::FileID", align 4
  %8 = alloca %"class.clang::SourceLocation", align 4
  %9 = alloca { i64, i8 }, align 8
  %10 = alloca { i64, i8 }, align 8
  %11 = getelementptr inbounds nuw %"class.clang::SourceLocation", ptr %4, i32 0, i32 0
  store i32 %1, ptr %11, align 4
  store ptr %0, ptr %5, align 8
  %12 = load ptr, ptr %5, align 8
  call void @llvm.memcpy.p0.p0.i64(ptr align 4 %8, ptr align 4 %4, i64 4, i1 false)
  %13 = getelementptr inbounds nuw %"class.clang::SourceLocation", ptr %8, i32 0, i32 0
  %14 = load i32, ptr %13, align 4
  %15 = call i32 @_ZNK5clang13SourceManager9getFileIDENS_14SourceLocationE(ptr noundef nonnull align 8 dereferenceable(696) %12, i32 %14)
  %16 = getelementptr inbounds nuw %"class.clang::FileID", ptr %7, i32 0, i32 0
  store i32 %15, ptr %16, align 4
  %17 = getelementptr inbounds nuw %"class.clang::FileID", ptr %7, i32 0, i32 0
  %18 = load i32, ptr %17, align 4
  %19 = call noundef nonnull align 8 dereferenceable(24) ptr @_ZNK5clang13SourceManager12getSLocEntryENS_6FileIDEPb(ptr noundef nonnull align 8 dereferenceable(696) %12, i32 %18, ptr noundef null)
  %20 = call noundef nonnull align 4 dereferenceable(13) ptr @_ZNK5clang6SrcMgr9SLocEntry12getExpansionEv(ptr noundef nonnull align 8 dereferenceable(24) %19)
  store ptr %20, ptr %6, align 8
  %21 = load ptr, ptr %6, align 8
  %22 = call { i64, i8 } @_ZNK5clang6SrcMgr13ExpansionInfo20getExpansionLocRangeEv(ptr noundef nonnull align 4 dereferenceable(13) %21)
  store { i64, i8 } %22, ptr %9, align 8
  call void @llvm.memcpy.p0.p0.i64(ptr align 4 %3, ptr align 8 %9, i64 9, i1 false)
  call void @llvm.memcpy.p0.p0.i64(ptr align 8 %10, ptr align 4 %3, i64 12, i1 false)
  %23 = load { i64, i8 }, ptr %10, align 8
  ret { i64, i8 } %23
}