; Function Attrs: mustprogress nounwind uwtable
define dso_local { i64, i8 } @_ZNK5clang13SourceManager26getImmediateExpansionRangeENS_14SourceLocationE(ptr noundef nonnull align 8 dereferenceable(696) %0, i32 %1) local_unnamed_addr #1 align 2 {
  %3 = and i32 %1, 2147483647
  %4 = tail call i32 @_ZNK5clang13SourceManager9getFileIDEj(ptr noundef nonnull align 8 dereferenceable(696) %0, i32 noundef %3)
  %5 = add i32 %4, 1
  %or.cond.i.i = icmp ult i32 %5, 2
  br i1 %or.cond.i.i, label %6, label %9

6:                                                ; preds = %2
  %7 = getelementptr inbounds nuw i8, ptr %0, i64 184
  %8 = load ptr, ptr %7, align 8
  br label %_ZNK5clang13SourceManager12getSLocEntryENS_6FileIDEPb.exit

9:                                                ; preds = %2
  %10 = tail call noundef nonnull align 8 dereferenceable(24) ptr @_ZN5clang13SourceManager16getSLocEntryByIDEiPb(ptr noundef nonnull align 8 dereferenceable(696) %0, i32 noundef %4, ptr noundef null)
  br label %_ZNK5clang13SourceManager12getSLocEntryENS_6FileIDEPb.exit

_ZNK5clang13SourceManager12getSLocEntryENS_6FileIDEPb.exit: ; preds = %6, %9
  %.0.i.i = phi ptr [ %8, %6 ], [ %10, %9 ]
  %11 = getelementptr inbounds nuw i8, ptr %.0.i.i, i64 12
  %.sroa.0.0.copyload.i.i = load i32, ptr %11, align 4
  %12 = getelementptr inbounds nuw i8, ptr %.0.i.i, i64 16
  %13 = load i32, ptr %12, align 4
  %14 = icmp eq i32 %13, 0
  %.sroa.0.0.i.i = select i1 %14, i32 %.sroa.0.0.copyload.i.i, i32 %13
  %15 = getelementptr inbounds nuw i8, ptr %.0.i.i, i64 20
  %16 = load i8, ptr %15, align 4
  %.sroa.2.0.insert.ext.i = zext i32 %.sroa.0.0.i.i to i64
  %.sroa.2.0.insert.shift.i = shl nuw i64 %.sroa.2.0.insert.ext.i, 32
  %.sroa.0.0.insert.ext.i = zext i32 %.sroa.0.0.copyload.i.i to i64
  %.sroa.0.0.insert.insert.i = or disjoint i64 %.sroa.2.0.insert.shift.i, %.sroa.0.0.insert.ext.i
  %17 = and i8 %16, 1
  %.fca.0.insert.i = insertvalue { i64, i8 } poison, i64 %.sroa.0.0.insert.insert.i, 0
  %.fca.1.insert.i = insertvalue { i64, i8 } %.fca.0.insert.i, i8 %17, 1
  ret { i64, i8 } %.fca.1.insert.i
}